target datalayout = "e-m:e-p270:32:32-p271:32:32-p272:64:64-i64:64-i128:128-f80:128-n8:16:32:64-S128"
target triple = "x86_64-pc-linux-gnu"

; Function Attrs: mustprogress uwtable
define noundef double @_ZNK2mu6Parser4DiffEPddd(ptr noundef nonnull align 8 dereferenceable(596) %0, ptr noundef %1, double noundef %2, double noundef %3) #1 align 2 {
  %5 = alloca ptr, align 8
  %6 = alloca ptr, align 8
  %7 = alloca double, align 8
  %8 = alloca double, align 8
  %9 = alloca double, align 8
  %10 = alloca double, align 8
  %11 = alloca [4 x double], align 16
  %12 = alloca double, align 8
  store ptr %0, ptr %5, align 8
  store ptr %1, ptr %6, align 8
  store double %2, ptr %7, align 8
  store double %3, ptr %8, align 8
  %13 = load ptr, ptr %5, align 8
  store double 0.000000e+00, ptr %9, align 8
  %14 = load ptr, ptr %6, align 8
  %15 = load double, ptr %14, align 8
  store double %15, ptr %10, align 8
  call void @llvm.memset.p0.i64(ptr align 16 %11, i8 0, i64 32, i1 false)
  %16 = load double, ptr %8, align 8
  store double %16, ptr %12, align 8
  %17 = load double, ptr %12, align 8
  %18 = fcmp oeq double %17, 0.000000e+00
  br i1 %18, label %19, label %28

19:                                               ; preds = %4
  %20 = load double, ptr %7, align 8
  %21 = fcmp oeq double %20, 0.000000e+00
  br i1 %21, label %22, label %23

22:                                               ; preds = %19
  br label %26

23:                                               ; preds = %19
  %24 = load double, ptr %7, align 8
  %25 = fmul double 0x3E7AD7F29ABCAF48, %24
  br label %26

26:                                               ; preds = %23, %22
  %27 = phi double [ 1.000000e-10, %22 ], [ %25, %23 ]
  store double %27, ptr %12, align 8
  br label %28

28:                                               ; preds = %26, %4
  %29 = load double, ptr %7, align 8
  %30 = load double, ptr %12, align 8
  %31 = call double @llvm.fmuladd.f64(double 2.000000e+00, double %30, double %29)
  %32 = load ptr, ptr %6, align 8
  store double %31, ptr %32, align 8
  %33 = call noundef double @_ZNK2mu10ParserBase4EvalEv(ptr noundef nonnull align 8 dereferenceable(596) %13)
  %34 = getelementptr inbounds [4 x double], ptr %11, i64 0, i64 0
  store double %33, ptr %34, align 16
  %35 = load double, ptr %7, align 8
  %36 = load double, ptr %12, align 8
  %37 = call double @llvm.fmuladd.f64(double 1.000000e+00, double %36, double %35)
  %38 = load ptr, ptr %6, align 8
  store double %37, ptr %38, align 8
  %39 = call noundef double @_ZNK2mu10ParserBase4EvalEv(ptr noundef nonnull align 8 dereferenceable(596) %13)
  %40 = getelementptr inbounds [4 x double], ptr %11, i64 0, i64 1
  store double %39, ptr %40, align 8
  %41 = load double, ptr %7, align 8
  %42 = load double, ptr %12, align 8
  %43 = call double @llvm.fmuladd.f64(double -1.000000e+00, double %42, double %41)
  %44 = load ptr, ptr %6, align 8
  store double %43, ptr %44, align 8
  %45 = call noundef double @_ZNK2mu10ParserBase4EvalEv(ptr noundef nonnull align 8 dereferenceable(596) %13)
  %46 = getelementptr inbounds [4 x double], ptr %11, i64 0, i64 2
  store double %45, ptr %46, align 16
  %47 = load double, ptr %7, align 8
  %48 = load double, ptr %12, align 8
  %49 = call double @llvm.fmuladd.f64(double -2.000000e+00, double %48, double %47)
  %50 = load ptr, ptr %6, align 8
  store double %49, ptr %50, align 8
  %51 = call noundef double @_ZNK2mu10ParserBase4EvalEv(ptr noundef nonnull align 8 dereferenceable(596) %13)
  %52 = getelementptr inbounds [4 x double], ptr %11, i64 0, i64 3
  store double %51, ptr %52, align 8
  %53 = load double, ptr %10, align 8
  %54 = load ptr, ptr %6, align 8
  store double %53, ptr %54, align 8
  %55 = getelementptr inbounds [4 x double], ptr %11, i64 0, i64 0
  %56 = load double, ptr %55, align 16
  %57 = fneg double %56
  %58 = getelementptr inbounds [4 x double], ptr %11, i64 0, i64 1
  %59 = load double, ptr %58, align 8
  %60 = call double @llvm.fmuladd.f64(double 8.000000e+00, double %59, double %57)
  %61 = getelementptr inbounds [4 x double], ptr %11, i64 0, i64 2
  %62 = load double, ptr %61, align 16
  %63 = call double @llvm.fmuladd.f64(double -8.000000e+00, double %62, double %60)
  %64 = getelementptr inbounds [4 x double], ptr %11, i64 0, i64 3
  %65 = load double, ptr %64, align 8
  %66 = fadd double %63, %65
  %67 = load double, ptr %12, align 8
  %68 = fmul double 1.200000e+01, %67
  %69 = fdiv double %66, %68
  store double %69, ptr %9, align 8
  %70 = load double, ptr %9, align 8
  ret double %70
}