; Function Attrs: mustprogress uwtable
define noundef double @_ZNK2mu6Parser4DiffEPddd(ptr noundef nonnull align 8 dereferenceable(596) %0, ptr nocapture noundef %1, double noundef %2, double noundef %3) local_unnamed_addr #1 align 2 {
  %5 = load double, ptr %1, align 8
  %6 = fcmp oeq double %3, 0.000000e+00
  br i1 %6, label %7, label %11

7:                                                ; preds = %4
  %8 = fcmp oeq double %2, 0.000000e+00
  %9 = fmul double %2, 0x3E7AD7F29ABCAF48
  %10 = select i1 %8, double 1.000000e-10, double %9
  br label %11

11:                                               ; preds = %7, %4
  %.0 = phi double [ %10, %7 ], [ %3, %4 ]
  %12 = tail call double @llvm.fmuladd.f64(double %.0, double 2.000000e+00, double %2)
  store double %12, ptr %1, align 8
  %13 = tail call noundef double @_ZNK2mu10ParserBase4EvalEv(ptr noundef nonnull align 8 dereferenceable(596) %0)
  %14 = fadd double %.0, %2
  store double %14, ptr %1, align 8
  %15 = tail call noundef double @_ZNK2mu10ParserBase4EvalEv(ptr noundef nonnull align 8 dereferenceable(596) %0)
  %16 = tail call double @llvm.fmuladd.f64(double %.0, double -1.000000e+00, double %2)
  store double %16, ptr %1, align 8
  %17 = tail call noundef double @_ZNK2mu10ParserBase4EvalEv(ptr noundef nonnull align 8 dereferenceable(596) %0)
  %18 = tail call double @llvm.fmuladd.f64(double %.0, double -2.000000e+00, double %2)
  store double %18, ptr %1, align 8
  %19 = tail call noundef double @_ZNK2mu10ParserBase4EvalEv(ptr noundef nonnull align 8 dereferenceable(596) %0)
  store double %5, ptr %1, align 8
  %20 = fneg double %13
  %21 = tail call double @llvm.fmuladd.f64(double %15, double 8.000000e+00, double %20)
  %22 = tail call double @llvm.fmuladd.f64(double %17, double -8.000000e+00, double %21)
  %23 = fadd double %22, %19
  %24 = fmul double %.0, 1.200000e+01
  %25 = fdiv double %23, %24
  ret double %25
}